target datalayout = "e-m:e-p270:32:32-p271:32:32-p272:64:64-i64:64-i128:128-f80:128-n8:16:32:64-S128"
target triple = "x86_64-pc-linux-gnu"

%struct.Vec_Int_t_ = type { i32, i32, ptr }
%struct.Vec_Ptr_t_ = type { i32, i32, ptr }
%struct.Abc_Ntk_t_ = type { i32, i32, ptr, ptr, ptr, ptr, ptr, ptr, ptr, ptr, ptr, ptr, ptr, [11 x i32], i32, i32, i32, i32, ptr, i32, ptr, ptr, i32, i32, i32, double, i32, %struct.Vec_Int_t_, ptr, ptr, ptr, ptr, ptr, float, i32, ptr, ptr, ptr, ptr, ptr, ptr, ptr, ptr, ptr, ptr, ptr, ptr, ptr, ptr, ptr, ptr, ptr, ptr, ptr, ptr, ptr }
%struct.Aig_Man_t_ = type { ptr, ptr, ptr, ptr, ptr, ptr, ptr, %struct.Aig_Obj_t_, i32, i32, i32, i32, i32, i32, [7 x i32], i32, ptr, i32, ptr, i32, ptr, i32, i32, i32, ptr, i32, i32, i32, i32, i32, ptr, ptr, i32, ptr, ptr, i32, ptr, ptr, i32, i32, i32, ptr, ptr, ptr, ptr, ptr, ptr, ptr, ptr, ptr, ptr, ptr, ptr, ptr, ptr, i32, ptr, ptr, ptr, ptr, i32, i64, i64, i64, ptr, ptr }
%struct.Aig_Obj_t_ = type { %union.anon, ptr, ptr, i64, i32, i32, %union.anon.0 }
%union.anon = type { ptr }
%union.anon.0 = type { ptr }

@.str.67 = private unnamed_addr constant [41 x i8] c"Converting network into AIG has failed.\0A\00", align 1
@.str.68 = private unnamed_addr constant [24 x i8] c"Demitering has failed.\0A\00", align 1
@.str.69 = private unnamed_addr constant [3 x i8] c"%s\00", align 1
@.str.70 = private unnamed_addr constant [10 x i8] c"part0.aig\00", align 1
@.str.71 = private unnamed_addr constant [10 x i8] c"part1.aig\00", align 1
@.str.72 = private unnamed_addr constant [46 x i8] c"Demitering produced two files \22%s\22 and \22%s\22.\0A\00", align 1
@.str.73 = private unnamed_addr constant [35 x i8] c"The number of POs should be even.\0A\00", align 1
@.str.74 = private unnamed_addr constant [6 x i8] c"part0\00", align 1
@.str.75 = private unnamed_addr constant [6 x i8] c"part1\00", align 1

; Function Attrs: nounwind uwtable
define internal i32 @Vec_PtrSize(ptr noundef %0) #0 {
  %2 = alloca ptr, align 8
  store ptr %0, ptr %2, align 8
  %3 = load ptr, ptr %2, align 8
  %4 = getelementptr inbounds %struct.Vec_Ptr_t_, ptr %3, i32 0, i32 1
  %5 = load i32, ptr %4, align 4
  ret i32 %5
}

; Function Attrs: nounwind uwtable
define internal ptr @Abc_UtilStrsav(ptr noundef %0) #0 {
  %2 = alloca ptr, align 8
  store ptr %0, ptr %2, align 8
  %3 = load ptr, ptr %2, align 8
  %4 = icmp ne ptr %3, null
  br i1 %4, label %5, label %13

5:                                                ; preds = %1
  %6 = load ptr, ptr %2, align 8
  %7 = call i64 @strlen(ptr noundef %6) #9
  %8 = add i64 %7, 1
  %9 = mul i64 1, %8
  %10 = call noalias ptr @malloc(i64 noundef %9) #11
  %11 = load ptr, ptr %2, align 8
  %12 = call ptr @strcpy(ptr noundef %10, ptr noundef %11) #10
  br label %14

13:                                               ; preds = %1
  br label %14

14:                                               ; preds = %13, %5
  %15 = phi ptr [ %12, %5 ], [ null, %13 ]
  ret ptr %15
}

; Function Attrs: nounwind uwtable
define internal i32 @Abc_NtkPoNum(ptr noundef %0) #0 {
  %2 = alloca ptr, align 8
  store ptr %0, ptr %2, align 8
  %3 = load ptr, ptr %2, align 8
  %4 = getelementptr inbounds %struct.Abc_Ntk_t_, ptr %3, i32 0, i32 7
  %5 = load ptr, ptr %4, align 8
  %6 = call i32 @Vec_PtrSize(ptr noundef %5)
  ret i32 %6
}

; Function Attrs: nounwind uwtable
define i32 @Abc_NtkDarDemiterDual(ptr noundef %0, i32 noundef %1) #0 {
  %3 = alloca i32, align 4
  %4 = alloca ptr, align 8
  %5 = alloca i32, align 4
  %6 = alloca ptr, align 8
  %7 = alloca [1000 x i8], align 16
  %8 = alloca [1000 x i8], align 16
  %9 = alloca ptr, align 8
  %10 = alloca ptr, align 8
  %11 = alloca ptr, align 8
  store ptr %0, ptr %4, align 8
  store i32 %1, ptr %5, align 4
  %12 = load ptr, ptr %4, align 8
  %13 = call i32 @Abc_NtkPoNum(ptr noundef %12)
  %14 = and i32 %13, 1
  %15 = icmp ne i32 %14, 0
  br i1 %15, label %16, label %17

16:                                               ; preds = %2
  call void (i32, ptr, ...) @Abc_Print(i32 noundef 1, ptr noundef @.str.73)
  store i32 0, ptr %3, align 4
  br label %89

17:                                               ; preds = %2
  %18 = load ptr, ptr %4, align 8
  %19 = call ptr @Abc_NtkToDar(ptr noundef %18, i32 noundef 0, i32 noundef 1)
  store ptr %19, ptr %9, align 8
  %20 = load ptr, ptr %9, align 8
  %21 = icmp eq ptr %20, null
  br i1 %21, label %22, label %23

22:                                               ; preds = %17
  call void (i32, ptr, ...) @Abc_Print(i32 noundef 1, ptr noundef @.str.67)
  store i32 0, ptr %3, align 4
  br label %89

23:                                               ; preds = %17
  %24 = load ptr, ptr %9, align 8
  %25 = call i32 @Saig_ManDemiterDual(ptr noundef %24, ptr noundef %10, ptr noundef %11)
  %26 = icmp ne i32 %25, 0
  br i1 %26, label %28, label %27

27:                                               ; preds = %23
  call void (i32, ptr, ...) @Abc_Print(i32 noundef 1, ptr noundef @.str.68)
  store i32 0, ptr %3, align 4
  br label %89

28:                                               ; preds = %23
  %29 = load ptr, ptr %10, align 8
  %30 = getelementptr inbounds %struct.Aig_Man_t_, ptr %29, i32 0, i32 0
  %31 = load ptr, ptr %30, align 8
  %32 = icmp ne ptr %31, null
  br i1 %32, label %33, label %39

33:                                               ; preds = %28
  %34 = load ptr, ptr %10, align 8
  %35 = getelementptr inbounds %struct.Aig_Man_t_, ptr %34, i32 0, i32 0
  %36 = load ptr, ptr %35, align 8
  call void @free(ptr noundef %36) #10
  %37 = load ptr, ptr %10, align 8
  %38 = getelementptr inbounds %struct.Aig_Man_t_, ptr %37, i32 0, i32 0
  store ptr null, ptr %38, align 8
  br label %40

39:                                               ; preds = %28
  br label %40

40:                                               ; preds = %39, %33
  %41 = call ptr @Abc_UtilStrsav(ptr noundef @.str.74)
  %42 = load ptr, ptr %10, align 8
  %43 = getelementptr inbounds %struct.Aig_Man_t_, ptr %42, i32 0, i32 0
  store ptr %41, ptr %43, align 8
  %44 = load ptr, ptr %11, align 8
  %45 = getelementptr inbounds %struct.Aig_Man_t_, ptr %44, i32 0, i32 0
  %46 = load ptr, ptr %45, align 8
  %47 = icmp ne ptr %46, null
  br i1 %47, label %48, label %54

48:                                               ; preds = %40
  %49 = load ptr, ptr %11, align 8
  %50 = getelementptr inbounds %struct.Aig_Man_t_, ptr %49, i32 0, i32 0
  %51 = load ptr, ptr %50, align 8
  call void @free(ptr noundef %51) #10
  %52 = load ptr, ptr %11, align 8
  %53 = getelementptr inbounds %struct.Aig_Man_t_, ptr %52, i32 0, i32 0
  store ptr null, ptr %53, align 8
  br label %55

54:                                               ; preds = %40
  br label %55

55:                                               ; preds = %54, %48
  %56 = call ptr @Abc_UtilStrsav(ptr noundef @.str.75)
  %57 = load ptr, ptr %11, align 8
  %58 = getelementptr inbounds %struct.Aig_Man_t_, ptr %57, i32 0, i32 0
  store ptr %56, ptr %58, align 8
  %59 = load ptr, ptr %4, align 8
  %60 = getelementptr inbounds %struct.Abc_Ntk_t_, ptr %59, i32 0, i32 3
  %61 = load ptr, ptr %60, align 8
  %62 = call ptr @Extra_FileNameGeneric(ptr noundef %61)
  store ptr %62, ptr %6, align 8
  %63 = getelementptr inbounds [1000 x i8], ptr %7, i64 0, i64 0
  %64 = call i32 (ptr, ptr, ...) @sprintf(ptr noundef %63, ptr noundef @.str.69, ptr noundef @.str.70) #10
  %65 = getelementptr inbounds [1000 x i8], ptr %8, i64 0, i64 0
  %66 = call i32 (ptr, ptr, ...) @sprintf(ptr noundef %65, ptr noundef @.str.69, ptr noundef @.str.71) #10
  %67 = load ptr, ptr %6, align 8
  %68 = icmp ne ptr %67, null
  br i1 %68, label %69, label %71

69:                                               ; preds = %55
  %70 = load ptr, ptr %6, align 8
  call void @free(ptr noundef %70) #10
  store ptr null, ptr %6, align 8
  br label %72

71:                                               ; preds = %55
  br label %72

72:                                               ; preds = %71, %69
  %73 = load ptr, ptr %10, align 8
  %74 = getelementptr inbounds [1000 x i8], ptr %7, i64 0, i64 0
  call void @Ioa_WriteAiger(ptr noundef %73, ptr noundef %74, i32 noundef 0, i32 noundef 0)
  %75 = load ptr, ptr %11, align 8
  %76 = getelementptr inbounds [1000 x i8], ptr %8, i64 0, i64 0
  call void @Ioa_WriteAiger(ptr noundef %75, ptr noundef %76, i32 noundef 0, i32 noundef 0)
  %77 = getelementptr inbounds [1000 x i8], ptr %7, i64 0, i64 0
  %78 = getelementptr inbounds [1000 x i8], ptr %8, i64 0, i64 0
  call void (i32, ptr, ...) @Abc_Print(i32 noundef 1, ptr noundef @.str.72, ptr noundef %77, ptr noundef %78)
  %79 = load i32, ptr %5, align 4
  %80 = icmp ne i32 %79, 0
  br i1 %80, label %81, label %85

81:                                               ; preds = %72
  %82 = load ptr, ptr %9, align 8
  call void @Aig_ManPrintStats(ptr noundef %82)
  %83 = load ptr, ptr %10, align 8
  call void @Aig_ManPrintStats(ptr noundef %83)
  %84 = load ptr, ptr %11, align 8
  call void @Aig_ManPrintStats(ptr noundef %84)
  br label %85

85:                                               ; preds = %81, %72
  %86 = load ptr, ptr %10, align 8
  call void @Aig_ManStop(ptr noundef %86)
  %87 = load ptr, ptr %11, align 8
  call void @Aig_ManStop(ptr noundef %87)
  %88 = load ptr, ptr %9, align 8
  call void @Aig_ManStop(ptr noundef %88)
  store i32 1, ptr %3, align 4
  br label %89

89:                                               ; preds = %85, %27, %22, %16
  %90 = load i32, ptr %3, align 4
  ret i32 %90
}