; Function Attrs: nounwind uwtable
define range(i32 0, 2) i32 @Abc_NtkDarDemiterDual(ptr noundef %0, i32 noundef %1) local_unnamed_addr #1 {
  %3 = alloca [1000 x i8], align 16
  %4 = alloca [1000 x i8], align 16
  %5 = alloca ptr, align 8
  %6 = alloca ptr, align 8
  %7 = getelementptr i8, ptr %0, i64 48
  %.val = load ptr, ptr %7, align 8
  %8 = getelementptr i8, ptr %.val, i64 4
  %.val.val = load i32, ptr %8, align 4
  %9 = and i32 %.val.val, 1
  %.not = icmp eq i32 %9, 0
  br i1 %.not, label %11, label %10

10:                                               ; preds = %2
  tail call void (i32, ptr, ...) @Abc_Print(i32 poison, ptr noundef nonnull @.str.73)
  br label %46

11:                                               ; preds = %2
  %12 = tail call ptr @Abc_NtkToDar(ptr noundef nonnull %0, i32 noundef 0, i32 noundef 1)
  %13 = icmp eq ptr %12, null
  br i1 %13, label %14, label %15

14:                                               ; preds = %11
  tail call void (i32, ptr, ...) @Abc_Print(i32 poison, ptr noundef nonnull @.str.67)
  br label %46

15:                                               ; preds = %11
  %16 = call i32 @Saig_ManDemiterDual(ptr noundef nonnull %12, ptr noundef nonnull %5, ptr noundef nonnull %6) #19
  %.not14 = icmp eq i32 %16, 0
  br i1 %.not14, label %17, label %18

17:                                               ; preds = %15
  call void (i32, ptr, ...) @Abc_Print(i32 poison, ptr noundef nonnull @.str.68)
  br label %46

18:                                               ; preds = %15
  %19 = load ptr, ptr %5, align 8
  %20 = load ptr, ptr %19, align 8
  %.not15 = icmp eq ptr %20, null
  br i1 %.not15, label %23, label %21

21:                                               ; preds = %18
  call void @free(ptr noundef nonnull %20) #19
  %22 = load ptr, ptr %5, align 8
  store ptr null, ptr %22, align 8
  %.pre = load ptr, ptr %5, align 8
  br label %23

23:                                               ; preds = %18, %21
  %24 = phi ptr [ %19, %18 ], [ %.pre, %21 ]
  %25 = call noalias dereferenceable_or_null(6) ptr @malloc(i64 noundef 6) #18
  call void @llvm.memcpy.p0.p0.i64(ptr noundef nonnull align 1 dereferenceable(6) %25, ptr noundef nonnull align 1 dereferenceable(6) @.str.74, i64 6, i1 false) #19
  store ptr %25, ptr %24, align 8
  %26 = load ptr, ptr %6, align 8
  %27 = load ptr, ptr %26, align 8
  %.not16 = icmp eq ptr %27, null
  br i1 %.not16, label %30, label %28

28:                                               ; preds = %23
  call void @free(ptr noundef nonnull %27) #19
  %29 = load ptr, ptr %6, align 8
  store ptr null, ptr %29, align 8
  %.pre19 = load ptr, ptr %6, align 8
  br label %30

30:                                               ; preds = %23, %28
  %31 = phi ptr [ %26, %23 ], [ %.pre19, %28 ]
  %32 = call noalias dereferenceable_or_null(6) ptr @malloc(i64 noundef 6) #18
  call void @llvm.memcpy.p0.p0.i64(ptr noundef nonnull align 1 dereferenceable(6) %32, ptr noundef nonnull align 1 dereferenceable(6) @.str.75, i64 6, i1 false) #19
  store ptr %32, ptr %31, align 8
  %33 = getelementptr inbounds nuw i8, ptr %0, i64 16
  %34 = load ptr, ptr %33, align 8
  %35 = call ptr @Extra_FileNameGeneric(ptr noundef %34) #19
  call void @llvm.memcpy.p0.p0.i64(ptr noundef nonnull align 16 dereferenceable(10) %3, ptr noundef nonnull align 1 dereferenceable(10) @.str.70, i64 10, i1 false)
  call void @llvm.memcpy.p0.p0.i64(ptr noundef nonnull align 16 dereferenceable(10) %4, ptr noundef nonnull align 1 dereferenceable(10) @.str.71, i64 10, i1 false)
  %.not17 = icmp eq ptr %35, null
  br i1 %.not17, label %37, label %36

36:                                               ; preds = %30
  call void @free(ptr noundef nonnull %35) #19
  br label %37

37:                                               ; preds = %30, %36
  %38 = load ptr, ptr %5, align 8
  call void @Ioa_WriteAiger(ptr noundef %38, ptr noundef nonnull %3, i32 noundef 0, i32 noundef 0) #19
  %39 = load ptr, ptr %6, align 8
  call void @Ioa_WriteAiger(ptr noundef %39, ptr noundef nonnull %4, i32 noundef 0, i32 noundef 0) #19
  call void (i32, ptr, ...) @Abc_Print(i32 poison, ptr noundef nonnull @.str.72, ptr noundef nonnull %3, ptr noundef nonnull %4)
  %.not18 = icmp eq i32 %1, 0
  br i1 %.not18, label %43, label %40

40:                                               ; preds = %37
  call void @Aig_ManPrintStats(ptr noundef nonnull %12) #19
  %41 = load ptr, ptr %5, align 8
  call void @Aig_ManPrintStats(ptr noundef %41) #19
  %42 = load ptr, ptr %6, align 8
  call void @Aig_ManPrintStats(ptr noundef %42) #19
  br label %43

43:                                               ; preds = %40, %37
  %44 = load ptr, ptr %5, align 8
  call void @Aig_ManStop(ptr noundef %44) #19
  %45 = load ptr, ptr %6, align 8
  call void @Aig_ManStop(ptr noundef %45) #19
  call void @Aig_ManStop(ptr noundef nonnull %12) #19
  br label %46

46:                                               ; preds = %43, %17, %14, %10
  %.0 = phi i32 [ 0, %10 ], [ 0, %14 ], [ 1, %43 ], [ 0, %17 ]
  ret i32 %.0
}